; Function Attrs: mustprogress uwtable
define dso_local void @_ZN9cmFileAPI17BuildInternalTestERKNS_6ObjectE(ptr dead_on_unwind noalias nonnull writable sret(%"class.Json::Value") align 8 %0, ptr nonnull readnone align 8 captures(none) %1, ptr noundef nonnull readonly align 8 captures(none) dereferenceable(16) %2) local_unnamed_addr #5 align 2 personality ptr @__gxx_personality_v0 {
  %4 = alloca %"class.Json::Value", align 8
  %5 = alloca %"class.Json::Value", align 8
  %6 = alloca %"class.Json::Value", align 8
  tail call void @_ZN4Json5ValueC1ENS_9ValueTypeE(ptr noundef nonnull align 8 dereferenceable(40) %0, i32 noundef 7)
  call void @llvm.lifetime.start.p0(i64 40, ptr nonnull %4) #24
  %7 = load i32, ptr %2, align 8, !tbaa !188
  %8 = sext i32 %7 to i64
  %9 = getelementptr inbounds nuw [6 x ptr], ptr @_ZZN9cmFileAPI14ObjectKindNameENS_10ObjectKindEE15objectKindNames, i64 0, i64 %8
  %10 = load ptr, ptr %9, align 8, !tbaa !80
  invoke void @_ZN4Json5ValueC1EPKc(ptr noundef nonnull align 8 dereferenceable(40) %4, ptr noundef %10)
          to label %11 unwind label %23

11:                                               ; preds = %3
  %12 = invoke noundef nonnull align 8 dereferenceable(40) ptr @_ZN4Json5ValueixEPKc(ptr noundef nonnull align 8 dereferenceable(40) %0, ptr noundef nonnull @.str.43)
          to label %13 unwind label %25

13:                                               ; preds = %11
  %14 = call noundef nonnull align 8 dereferenceable(40) ptr @_ZN4Json5ValueaSEOS0_(ptr noundef nonnull align 8 dereferenceable(40) %12, ptr noundef nonnull align 8 dereferenceable(40) %4) #24
  call void @_ZN4Json5ValueD1Ev(ptr noundef nonnull align 8 dereferenceable(40) %4) #24
  call void @llvm.lifetime.end.p0(i64 40, ptr nonnull %4) #24
  %15 = invoke noundef nonnull align 8 dereferenceable(40) ptr @_ZN4Json5ValueixEPKc(ptr noundef nonnull align 8 dereferenceable(40) %0, ptr noundef nonnull @.str.35)
          to label %16 unwind label %28

16:                                               ; preds = %13
  %17 = getelementptr inbounds nuw i8, ptr %2, i64 8
  %18 = load i64, ptr %17, align 8, !tbaa !190
  %19 = icmp eq i64 %18, 2
  br i1 %19, label %20, label %32

20:                                               ; preds = %16
  call void @llvm.lifetime.start.p0(i64 40, ptr nonnull %5) #24
  invoke void @_ZN9cmFileAPI12BuildVersionEjj(ptr dead_on_unwind nonnull writable sret(%"class.Json::Value") align 8 %5, i32 noundef 2, i32 noundef 0)
          to label %21 unwind label %30

21:                                               ; preds = %20
  %22 = call noundef nonnull align 8 dereferenceable(40) ptr @_ZN4Json5ValueaSEOS0_(ptr noundef nonnull align 8 dereferenceable(40) %15, ptr noundef nonnull align 8 dereferenceable(40) %5) #24
  call void @_ZN4Json5ValueD1Ev(ptr noundef nonnull align 8 dereferenceable(40) %5) #24
  call void @llvm.lifetime.end.p0(i64 40, ptr nonnull %5) #24
  br label %37

23:                                               ; preds = %3
  %24 = landingpad { ptr, i32 }
          cleanup
  br label %27

25:                                               ; preds = %11
  %26 = landingpad { ptr, i32 }
          cleanup
  call void @_ZN4Json5ValueD1Ev(ptr noundef nonnull align 8 dereferenceable(40) %4) #24
  br label %27

27:                                               ; preds = %25, %23
  %.pn = phi { ptr, i32 } [ %26, %25 ], [ %24, %23 ]
  call void @llvm.lifetime.end.p0(i64 40, ptr nonnull %4) #24
  br label %38

28:                                               ; preds = %13
  %29 = landingpad { ptr, i32 }
          cleanup
  br label %38

30:                                               ; preds = %20
  %31 = landingpad { ptr, i32 }
          cleanup
  call void @llvm.lifetime.end.p0(i64 40, ptr nonnull %5) #24
  br label %38

32:                                               ; preds = %16
  call void @llvm.lifetime.start.p0(i64 40, ptr nonnull %6) #24
  invoke void @_ZN9cmFileAPI12BuildVersionEjj(ptr dead_on_unwind nonnull writable sret(%"class.Json::Value") align 8 %6, i32 noundef 1, i32 noundef 3)
          to label %33 unwind label %35

33:                                               ; preds = %32
  %34 = call noundef nonnull align 8 dereferenceable(40) ptr @_ZN4Json5ValueaSEOS0_(ptr noundef nonnull align 8 dereferenceable(40) %15, ptr noundef nonnull align 8 dereferenceable(40) %6) #24
  call void @_ZN4Json5ValueD1Ev(ptr noundef nonnull align 8 dereferenceable(40) %6) #24
  call void @llvm.lifetime.end.p0(i64 40, ptr nonnull %6) #24
  br label %37

35:                                               ; preds = %32
  %36 = landingpad { ptr, i32 }
          cleanup
  call void @llvm.lifetime.end.p0(i64 40, ptr nonnull %6) #24
  br label %38

37:                                               ; preds = %21, %33
  ret void

38:                                               ; preds = %28, %30, %35, %27
  %.pn10.pn = phi { ptr, i32 } [ %.pn, %27 ], [ %31, %30 ], [ %36, %35 ], [ %29, %28 ]
  call void @_ZN4Json5ValueD1Ev(ptr noundef nonnull align 8 dereferenceable(40) %0) #24
  resume { ptr, i32 } %.pn10.pn
}